target datalayout = "e-m:e-p270:32:32-p271:32:32-p272:64:64-i64:64-i128:128-f80:128-n8:16:32:64-S128"
target triple = "x86_64-pc-linux-gnu"

; Function Attrs: nounwind uwtable
define i32 @wolfSSL_set_session(ptr noundef %0, ptr noundef %1) #0 {
  %3 = alloca i32, align 4
  %4 = alloca ptr, align 8
  %5 = alloca ptr, align 8
  store ptr %0, ptr %4, align 8, !tbaa !61
  store ptr %1, ptr %5, align 8, !tbaa !53
  br label %6

6:                                                ; preds = %2
  br label %7

7:                                                ; preds = %6
  %8 = load ptr, ptr %5, align 8, !tbaa !53
  %9 = icmp ne ptr %8, null
  br i1 %9, label %10, label %14

10:                                               ; preds = %7
  %11 = load ptr, ptr %4, align 8, !tbaa !61
  %12 = load ptr, ptr %5, align 8, !tbaa !53
  %13 = call i32 @wolfSSL_SetSession(ptr noundef %11, ptr noundef %12)
  store i32 %13, ptr %3, align 4
  br label %15

14:                                               ; preds = %7
  store i32 0, ptr %3, align 4
  br label %15

15:                                               ; preds = %14, %10
  %16 = load i32, ptr %3, align 4
  ret i32 %16
}