; Function Attrs: nounwind uwtable
define range(i32 0, 2) i32 @wolfSSL_set_session(ptr noundef captures(address_is_null) %0, ptr noundef %1) local_unnamed_addr #0 {
  %.not = icmp eq ptr %1, null
  br i1 %.not, label %5, label %3

3:                                                ; preds = %2
  %4 = tail call i32 @wolfSSL_SetSession(ptr noundef %0, ptr noundef nonnull %1)
  br label %5

5:                                                ; preds = %2, %3
  %.0 = phi i32 [ %4, %3 ], [ 0, %2 ]
  ret i32 %.0
}